(dp0
S'r_files'
p1
(lp2
S'EpiCRnew_R_edit.R'
p3
aS'DistrPost07_R_edit.R'
p4
aS'EpiLW.R'
p5
asS'trait_list'
p6
(lp7
I3
aI4
asS'selection_variable'
p8
I2
sS'data_file'
p9
S'SkizoGWA1.sav'
p10
sS'r_bin'
p11
S'$R'
p12
sS'main_r_file'
p13
S'EpiMain.R'
p14
sS'output_dir'
p15
S'epistasis_files/'
p16
sS'output_files'
p17
(lp18
S'epistasis_files1.tar.gz'
p19
asS'class'
p20
I1
sS'gene_list'
p21
(lp22
I5
aI6
aI7
aI8
aI9
as.