(lp0
S'/O=Grid/O=NorduGrid/OU=ndgf.org/CN=Anders Rhod Gregersen'
p1
aS'/O=Grid/O=NorduGrid/OU=uninett.no/CN=Tore Mauset'
p2
aS'/O=Grid/O=NorduGrid/OU=nbi.dk/CN=Anders Waananen'
p3
aS'/O=Grid/O=NorduGrid/OU=ndgf.org/CN=Josva Kleist'
p4
aS'/O=Grid/O=NorduGrid/OU=grid.dk/CN=Jonas Bardino'
p5
aS'/O=Grid/O=NorduGrid/OU=ndgf.org/CN=Michael Gronager'
p6
aS'/C=DK/ST=NA/L=NA/O=DIKU/OU=NA/CN=Jonas Bardino/emailAddress=bardino@diku.dk'
p7
aS'/O=Grid/O=NorduGrid/OU=grid.dk/CN=Jost Berthold'
p8
aS'/O=Grid/O=NorduGrid/OU=nbi.dk/CN=Frederik Orellana'
p9
aS'/C=DK/ST=NA/L=NA/O=DIKU/OU=NA/CN=Simon Andreas Frimann Lund/emailAddress=safl@diku.dk'
p10
aS'/CN=Benjamin Sedoc benji@rnd.feide.no'
p11
a.