(lp1
S'/C=DK/ST=NA/L=NA/O=DIKU/OU=NA/CN=Jonas Bardino/emailAddress=bardino@diku.dk'
p2
aS'/O=Grid/O=NorduGrid/OU=grid.dk/CN=Jost Berthold'
p3
aS'/O=Grid/O=NorduGrid/OU=nbi.dk/CN=Frederik Orellana'
p4
aS'/CN=Benjamin Sedoc benji@rnd.feide.no'
p5
a.